target datalayout = "e-m:e-p270:32:32-p271:32:32-p272:64:64-i64:64-i128:128-f80:128-n8:16:32:64-S128"
target triple = "x86_64-pc-linux-gnu"

%"class.JvmtiAgentList::Iterator" = type <{ ptr, i32, [4 x i8] }>
%class.GrowableArrayBase = type { i32, i32 }
%class.GrowableArrayView = type { %class.GrowableArrayBase, ptr }

@_ZN14JvmtiAgentList5_listE = hidden global ptr null, align 8
@_ZN14JvmtiAgentList8IteratorC1EPP10JvmtiAgentNS0_6FilterE = hidden unnamed_addr alias void (ptr, ptr, i32), ptr @_ZN14JvmtiAgentList8IteratorC2EPP10JvmtiAgentNS0_6FilterE

; Function Attrs: mustprogress nounwind uwtable
define linkonce_odr hidden noundef ptr @_ZN18GrowableArrayCHeapIP10JvmtiAgentL8MEMFLAGS23EE8allocateEiS2_(i32 noundef %0, i8 noundef zeroext %1) #1 comdat align 2 {
  %3 = alloca ptr, align 8
  %4 = alloca i32, align 4
  %5 = alloca i8, align 1
  store i32 %0, ptr %4, align 4
  store i8 %1, ptr %5, align 1
  %6 = load i32, ptr %4, align 4
  %7 = icmp eq i32 %6, 0
  br i1 %7, label %8, label %9

8:                                                ; preds = %2
  store ptr null, ptr %3, align 8
  br label %13

9:                                                ; preds = %2
  %10 = load i32, ptr %4, align 4
  %11 = load i8, ptr %5, align 1
  %12 = call noundef ptr @_ZN27GrowableArrayCHeapAllocator8allocateEii8MEMFLAGS(i32 noundef %10, i32 noundef 8, i8 noundef zeroext %11)
  store ptr %12, ptr %3, align 8
  br label %13

13:                                               ; preds = %9, %8
  %14 = load ptr, ptr %3, align 8
  ret ptr %14
}

; Function Attrs: mustprogress nounwind uwtable
define linkonce_odr hidden void @_ZN17GrowableArrayBaseD2Ev(ptr noundef nonnull align 4 dereferenceable(8) %0) unnamed_addr #1 comdat align 2 {
  %2 = alloca ptr, align 8
  store ptr %0, ptr %2, align 8
  ret void
}

; Function Attrs: mustprogress nounwind uwtable
define linkonce_odr hidden void @_ZN18GrowableArrayCHeapIP10JvmtiAgentL8MEMFLAGS23EE10deallocateEPS1_(ptr noundef nonnull align 8 dereferenceable(16) %0, ptr noundef %1) #1 comdat align 2 {
  %3 = alloca ptr, align 8
  %4 = alloca ptr, align 8
  store ptr %0, ptr %3, align 8
  store ptr %1, ptr %4, align 8
  %5 = load ptr, ptr %4, align 8
  call void @_ZN27GrowableArrayCHeapAllocator10deallocateEPv(ptr noundef %5)
  ret void
}

; Function Attrs: mustprogress nounwind uwtable
define linkonce_odr hidden noundef ptr @_ZN18GrowableArrayCHeapIP10JvmtiAgentL8MEMFLAGS23EE8allocateEv(ptr noundef nonnull align 8 dereferenceable(16) %0) #1 comdat align 2 {
  %2 = alloca ptr, align 8
  store ptr %0, ptr %2, align 8
  %3 = load ptr, ptr %2, align 8
  %4 = getelementptr inbounds %class.GrowableArrayBase, ptr %3, i32 0, i32 1
  %5 = load i32, ptr %4, align 4
  %6 = call noundef ptr @_ZN18GrowableArrayCHeapIP10JvmtiAgentL8MEMFLAGS23EE8allocateEiS2_(i32 noundef %5, i8 noundef zeroext 23)
  ret ptr %6
}

; Function Attrs: mustprogress nounwind uwtable
define linkonce_odr hidden void @_ZN17GrowableArrayViewIP10JvmtiAgentED2Ev(ptr noundef nonnull align 8 dereferenceable(16) %0) unnamed_addr #1 comdat align 2 {
  %2 = alloca ptr, align 8
  store ptr %0, ptr %2, align 8
  %3 = load ptr, ptr %2, align 8
  call void @_ZN17GrowableArrayBaseD2Ev(ptr noundef nonnull align 4 dereferenceable(8) %3) #6
  ret void
}

; Function Attrs: mustprogress nounwind uwtable
define linkonce_odr hidden void @_ZN26GrowableArrayWithAllocatorIP10JvmtiAgent18GrowableArrayCHeapIS1_L8MEMFLAGS23EEE13shrink_to_fitEv(ptr noundef nonnull align 8 dereferenceable(16) %0) #1 comdat align 2 {
  %2 = alloca ptr, align 8
  %3 = alloca i32, align 4
  %4 = alloca i32, align 4
  %5 = alloca ptr, align 8
  %6 = alloca ptr, align 8
  %7 = alloca i32, align 4
  %8 = alloca i32, align 4
  store ptr %0, ptr %2, align 8
  %9 = load ptr, ptr %2, align 8
  %10 = getelementptr inbounds %class.GrowableArrayBase, ptr %9, i32 0, i32 1
  %11 = load i32, ptr %10, align 4
  store i32 %11, ptr %3, align 4
  %12 = getelementptr inbounds %class.GrowableArrayBase, ptr %9, i32 0, i32 0
  %13 = load i32, ptr %12, align 8
  store i32 %13, ptr %4, align 4
  %14 = load i32, ptr %4, align 4
  %15 = load i32, ptr %3, align 4
  %16 = icmp eq i32 %14, %15
  br i1 %16, label %17, label %18

17:                                               ; preds = %1
  br label %62

18:                                               ; preds = %1
  %19 = getelementptr inbounds %class.GrowableArrayView, ptr %9, i32 0, i32 1
  %20 = load ptr, ptr %19, align 8
  store ptr %20, ptr %5, align 8
  store ptr null, ptr %6, align 8
  %21 = load i32, ptr %4, align 4
  %22 = getelementptr inbounds %class.GrowableArrayBase, ptr %9, i32 0, i32 1
  store i32 %21, ptr %22, align 4
  %23 = load i32, ptr %4, align 4
  %24 = icmp sgt i32 %23, 0
  br i1 %24, label %25, label %45

25:                                               ; preds = %18
  %26 = call noundef ptr @_ZN18GrowableArrayCHeapIP10JvmtiAgentL8MEMFLAGS23EE8allocateEv(ptr noundef nonnull align 8 dereferenceable(16) %9)
  store ptr %26, ptr %6, align 8
  store i32 0, ptr %7, align 4
  br label %27

27:                                               ; preds = %41, %25
  %28 = load i32, ptr %7, align 4
  %29 = load i32, ptr %4, align 4
  %30 = icmp slt i32 %28, %29
  br i1 %30, label %31, label %44

31:                                               ; preds = %27
  %32 = load ptr, ptr %6, align 8
  %33 = load i32, ptr %7, align 4
  %34 = sext i32 %33 to i64
  %35 = getelementptr inbounds ptr, ptr %32, i64 %34
  %36 = load ptr, ptr %5, align 8
  %37 = load i32, ptr %7, align 4
  %38 = sext i32 %37 to i64
  %39 = getelementptr inbounds ptr, ptr %36, i64 %38
  %40 = load ptr, ptr %39, align 8
  store ptr %40, ptr %35, align 8
  br label %41

41:                                               ; preds = %31
  %42 = load i32, ptr %7, align 4
  %43 = add nsw i32 %42, 1
  store i32 %43, ptr %7, align 4
  br label %27, !llvm.loop !18

44:                                               ; preds = %27
  br label %45

45:                                               ; preds = %44, %18
  store i32 0, ptr %8, align 4
  br label %46

46:                                               ; preds = %51, %45
  %47 = load i32, ptr %8, align 4
  %48 = load i32, ptr %3, align 4
  %49 = icmp slt i32 %47, %48
  br i1 %49, label %50, label %54

50:                                               ; preds = %46
  br label %51

51:                                               ; preds = %50
  %52 = load i32, ptr %8, align 4
  %53 = add nsw i32 %52, 1
  store i32 %53, ptr %8, align 4
  br label %46, !llvm.loop !19

54:                                               ; preds = %46
  %55 = load ptr, ptr %5, align 8
  %56 = icmp ne ptr %55, null
  br i1 %56, label %57, label %59

57:                                               ; preds = %54
  %58 = load ptr, ptr %5, align 8
  call void @_ZN18GrowableArrayCHeapIP10JvmtiAgentL8MEMFLAGS23EE10deallocateEPS1_(ptr noundef nonnull align 8 dereferenceable(16) %9, ptr noundef %58)
  br label %59

59:                                               ; preds = %57, %54
  %60 = load ptr, ptr %6, align 8
  %61 = getelementptr inbounds %class.GrowableArrayView, ptr %9, i32 0, i32 1
  store ptr %60, ptr %61, align 8
  br label %62

62:                                               ; preds = %59, %17
  ret void
}

; Function Attrs: mustprogress nounwind uwtable
define linkonce_odr hidden void @_ZN17GrowableArrayBase5clearEv(ptr noundef nonnull align 4 dereferenceable(8) %0) #1 comdat align 2 {
  %2 = alloca ptr, align 8
  store ptr %0, ptr %2, align 8
  %3 = load ptr, ptr %2, align 8
  %4 = getelementptr inbounds %class.GrowableArrayBase, ptr %3, i32 0, i32 0
  store i32 0, ptr %4, align 4
  ret void
}

; Function Attrs: mustprogress nounwind uwtable
define linkonce_odr hidden void @_ZN26GrowableArrayWithAllocatorIP10JvmtiAgent18GrowableArrayCHeapIS1_L8MEMFLAGS23EEED2Ev(ptr noundef nonnull align 8 dereferenceable(16) %0) unnamed_addr #1 comdat align 2 {
  %2 = alloca ptr, align 8
  store ptr %0, ptr %2, align 8
  %3 = load ptr, ptr %2, align 8
  call void @_ZN17GrowableArrayViewIP10JvmtiAgentED2Ev(ptr noundef nonnull align 8 dereferenceable(16) %3) #6
  ret void
}

; Function Attrs: mustprogress nounwind uwtable
define linkonce_odr hidden void @_ZN26GrowableArrayWithAllocatorIP10JvmtiAgent18GrowableArrayCHeapIS1_L8MEMFLAGS23EEE20clear_and_deallocateEv(ptr noundef nonnull align 8 dereferenceable(16) %0) #1 comdat align 2 {
  %2 = alloca ptr, align 8
  store ptr %0, ptr %2, align 8
  %3 = load ptr, ptr %2, align 8
  call void @_ZN17GrowableArrayBase5clearEv(ptr noundef nonnull align 4 dereferenceable(8) %3)
  call void @_ZN26GrowableArrayWithAllocatorIP10JvmtiAgent18GrowableArrayCHeapIS1_L8MEMFLAGS23EEE13shrink_to_fitEv(ptr noundef nonnull align 8 dereferenceable(16) %3)
  ret void
}

; Function Attrs: mustprogress nounwind uwtable
define linkonce_odr hidden noundef ptr @_ZN17GrowableArrayViewIP10JvmtiAgentE3popEv(ptr noundef nonnull align 8 dereferenceable(16) %0) #1 comdat align 2 {
  %2 = alloca ptr, align 8
  store ptr %0, ptr %2, align 8
  %3 = load ptr, ptr %2, align 8
  %4 = getelementptr inbounds %class.GrowableArrayView, ptr %3, i32 0, i32 1
  %5 = load ptr, ptr %4, align 8
  %6 = getelementptr inbounds %class.GrowableArrayBase, ptr %3, i32 0, i32 0
  %7 = load i32, ptr %6, align 8
  %8 = add nsw i32 %7, -1
  store i32 %8, ptr %6, align 8
  %9 = sext i32 %8 to i64
  %10 = getelementptr inbounds ptr, ptr %5, i64 %9
  %11 = load ptr, ptr %10, align 8
  ret ptr %11
}

; Function Attrs: mustprogress nounwind uwtable
define linkonce_odr hidden void @_ZN18GrowableArrayCHeapIP10JvmtiAgentL8MEMFLAGS23EEdlEPv(ptr noundef %0) #1 comdat align 2 {
  %2 = alloca ptr, align 8
  store ptr %0, ptr %2, align 8
  %3 = load ptr, ptr %2, align 8
  call void @_ZN6AnyObjdlEPv(ptr noundef %3) #6
  ret void
}

; Function Attrs: mustprogress nounwind uwtable
define linkonce_odr hidden void @_ZN18GrowableArrayCHeapIP10JvmtiAgentL8MEMFLAGS23EED2Ev(ptr noundef nonnull align 8 dereferenceable(16) %0) unnamed_addr #1 comdat align 2 {
  %2 = alloca ptr, align 8
  store ptr %0, ptr %2, align 8
  %3 = load ptr, ptr %2, align 8
  call void @_ZN26GrowableArrayWithAllocatorIP10JvmtiAgent18GrowableArrayCHeapIS1_L8MEMFLAGS23EEE20clear_and_deallocateEv(ptr noundef nonnull align 8 dereferenceable(16) %3)
  call void @_ZN26GrowableArrayWithAllocatorIP10JvmtiAgent18GrowableArrayCHeapIS1_L8MEMFLAGS23EEED2Ev(ptr noundef nonnull align 8 dereferenceable(16) %3) #6
  ret void
}

; Function Attrs: mustprogress nounwind uwtable
define hidden noundef ptr @_ZNK14JvmtiAgentList8Iterator4nextEv(ptr noundef nonnull align 8 dereferenceable(12) %0) #1 align 2 {
  %2 = alloca ptr, align 8
  store ptr %0, ptr %2, align 8
  %3 = load ptr, ptr %2, align 8
  %4 = getelementptr inbounds %"class.JvmtiAgentList::Iterator", ptr %3, i32 0, i32 0
  %5 = load ptr, ptr %4, align 8
  %6 = call noundef ptr @_ZN17GrowableArrayViewIP10JvmtiAgentE3popEv(ptr noundef nonnull align 8 dereferenceable(16) %5)
  ret ptr %6
}

; Function Attrs: mustprogress nounwind uwtable
define linkonce_odr hidden noundef zeroext i1 @_ZNK17GrowableArrayBase11is_nonemptyEv(ptr noundef nonnull align 4 dereferenceable(8) %0) #1 comdat align 2 {
  %2 = alloca ptr, align 8
  store ptr %0, ptr %2, align 8
  %3 = load ptr, ptr %2, align 8
  %4 = getelementptr inbounds %class.GrowableArrayBase, ptr %3, i32 0, i32 0
  %5 = load i32, ptr %4, align 4
  %6 = icmp ne i32 %5, 0
  ret i1 %6
}

; Function Attrs: mustprogress nounwind uwtable
define linkonce_odr hidden void @_ZN14JvmtiAgentList8IteratorD2Ev(ptr noundef nonnull align 8 dereferenceable(12) %0) unnamed_addr #1 comdat align 2 {
  %2 = alloca ptr, align 8
  store ptr %0, ptr %2, align 8
  %3 = load ptr, ptr %2, align 8
  %4 = getelementptr inbounds %"class.JvmtiAgentList::Iterator", ptr %3, i32 0, i32 0
  %5 = load ptr, ptr %4, align 8
  %6 = icmp eq ptr %5, null
  br i1 %6, label %8, label %7

7:                                                ; preds = %1
  call void @_ZN18GrowableArrayCHeapIP10JvmtiAgentL8MEMFLAGS23EED2Ev(ptr noundef nonnull align 8 dereferenceable(16) %5) #6
  call void @_ZN18GrowableArrayCHeapIP10JvmtiAgentL8MEMFLAGS23EEdlEPv(ptr noundef %5) #6
  br label %8

8:                                                ; preds = %7, %1
  ret void
}

; Function Attrs: mustprogress nounwind uwtable
define hidden noundef ptr @_ZN14JvmtiAgentList8Iterator4nextEv(ptr noundef nonnull align 8 dereferenceable(12) %0) #1 align 2 {
  %2 = alloca ptr, align 8
  store ptr %0, ptr %2, align 8
  %3 = load ptr, ptr %2, align 8
  %4 = call noundef ptr @_ZNK14JvmtiAgentList8Iterator4nextEv(ptr noundef nonnull align 8 dereferenceable(12) %3)
  ret ptr %4
}

; Function Attrs: mustprogress nounwind uwtable
define hidden noundef zeroext i1 @_ZNK14JvmtiAgentList8Iterator8has_nextEv(ptr noundef nonnull align 8 dereferenceable(12) %0) #1 align 2 {
  %2 = alloca ptr, align 8
  store ptr %0, ptr %2, align 8
  %3 = load ptr, ptr %2, align 8
  %4 = getelementptr inbounds %"class.JvmtiAgentList::Iterator", ptr %3, i32 0, i32 0
  %5 = load ptr, ptr %4, align 8
  %6 = call noundef zeroext i1 @_ZNK17GrowableArrayBase11is_nonemptyEv(ptr noundef nonnull align 4 dereferenceable(8) %5)
  ret i1 %6
}

; Function Attrs: mustprogress nounwind uwtable
define hidden void @_ZN14JvmtiAgentList6agentsEv(ptr dead_on_unwind noalias writable sret(%"class.JvmtiAgentList::Iterator") align 8 %0) #1 align 2 {
  %2 = alloca ptr, align 8
  store ptr %0, ptr %2, align 8
  call void @_ZN14JvmtiAgentList8IteratorC1EPP10JvmtiAgentNS0_6FilterE(ptr noundef nonnull align 8 dereferenceable(12) %0, ptr noundef @_ZN14JvmtiAgentList5_listE, i32 noundef 3)
  ret void
}

; Function Attrs: mustprogress nounwind uwtable
define hidden noundef zeroext i1 @_ZN14JvmtiAgentList20is_static_lib_loadedEPKc(ptr noundef %0) #1 align 2 {
  %2 = alloca i1, align 1
  %3 = alloca ptr, align 8
  %4 = alloca %"class.JvmtiAgentList::Iterator", align 8
  %5 = alloca ptr, align 8
  %6 = alloca i32, align 4
  store ptr %0, ptr %3, align 8
  call void @_ZN14JvmtiAgentList6agentsEv(ptr dead_on_unwind writable sret(%"class.JvmtiAgentList::Iterator") align 8 %4)
  br label %7

7:                                                ; preds = %20, %1
  %8 = call noundef zeroext i1 @_ZNK14JvmtiAgentList8Iterator8has_nextEv(ptr noundef nonnull align 8 dereferenceable(12) %4)
  br i1 %8, label %9, label %21

9:                                                ; preds = %7
  %10 = call noundef ptr @_ZN14JvmtiAgentList8Iterator4nextEv(ptr noundef nonnull align 8 dereferenceable(12) %4)
  store ptr %10, ptr %5, align 8
  %11 = load ptr, ptr %5, align 8
  %12 = call noundef zeroext i1 @_ZNK10JvmtiAgent13is_static_libEv(ptr noundef nonnull align 8 dereferenceable(86) %11)
  br i1 %12, label %13, label %20

13:                                               ; preds = %9
  %14 = load ptr, ptr %5, align 8
  %15 = call noundef ptr @_ZNK10JvmtiAgent4nameEv(ptr noundef nonnull align 8 dereferenceable(86) %14)
  %16 = load ptr, ptr %3, align 8
  %17 = call i32 @strcmp(ptr noundef %15, ptr noundef %16) #7
  %18 = icmp eq i32 %17, 0
  br i1 %18, label %19, label %20

19:                                               ; preds = %13
  store i1 true, ptr %2, align 1
  store i32 1, ptr %6, align 4
  br label %22

20:                                               ; preds = %13, %9
  br label %7, !llvm.loop !14

21:                                               ; preds = %7
  store i1 false, ptr %2, align 1
  store i32 1, ptr %6, align 4
  br label %22

22:                                               ; preds = %21, %19
  call void @_ZN14JvmtiAgentList8IteratorD2Ev(ptr noundef nonnull align 8 dereferenceable(12) %4) #6
  %23 = load i1, ptr %2, align 1
  ret i1 %23
}