; Function Attrs: mustprogress nounwind uwtable
define hidden noundef zeroext i1 @_ZN14JvmtiAgentList20is_static_lib_loadedEPKc(ptr nocapture noundef readonly %0) local_unnamed_addr #0 align 2 {
  %2 = alloca %"class.JvmtiAgentList::Iterator", align 8
  call void @_ZN14JvmtiAgentList8IteratorC2EPP10JvmtiAgentNS0_6FilterE(ptr noundef nonnull align 8 dereferenceable(12) %2, ptr noundef nonnull @_ZN14JvmtiAgentList5_listE, i32 noundef 3)
  %3 = load ptr, ptr %2, align 8
  %4 = load i32, ptr %3, align 4
  %.not = icmp eq i32 %4, 0
  br i1 %.not, label %._crit_edge, label %.lr.ph

.lr.ph:                                           ; preds = %1
  %5 = getelementptr inbounds i8, ptr %3, i64 8
  br label %6

6:                                                ; preds = %.lr.ph, %18
  %7 = phi i32 [ %4, %.lr.ph ], [ %19, %18 ]
  %8 = load ptr, ptr %5, align 8
  %9 = add nsw i32 %7, -1
  store i32 %9, ptr %3, align 8
  %10 = sext i32 %9 to i64
  %11 = getelementptr inbounds ptr, ptr %8, i64 %10
  %12 = load ptr, ptr %11, align 8
  %13 = tail call noundef zeroext i1 @_ZNK10JvmtiAgent13is_static_libEv(ptr noundef nonnull align 8 dereferenceable(86) %12) #9
  br i1 %13, label %14, label %18

14:                                               ; preds = %6
  %15 = tail call noundef ptr @_ZNK10JvmtiAgent4nameEv(ptr noundef nonnull align 8 dereferenceable(86) %12) #9
  %16 = tail call i32 @strcmp(ptr noundef nonnull dereferenceable(1) %15, ptr noundef nonnull dereferenceable(1) %0) #10
  %17 = icmp eq i32 %16, 0
  br i1 %17, label %._crit_edge, label %18

18:                                               ; preds = %14, %6
  %19 = load i32, ptr %3, align 4
  %.not9 = icmp eq i32 %19, 0
  br i1 %.not9, label %._crit_edge, label %6, !llvm.loop !16

._crit_edge:                                      ; preds = %18, %14, %1
  %.lcssa = phi i1 [ false, %1 ], [ true, %14 ], [ false, %18 ]
  store i32 0, ptr %3, align 4
  %20 = getelementptr inbounds i8, ptr %3, i64 4
  %21 = load i32, ptr %20, align 4
  %22 = icmp eq i32 %21, 0
  br i1 %22, label %_ZN14JvmtiAgentList8IteratorD2Ev.exit, label %.loopexit.i.i.i.i

.loopexit.i.i.i.i:                                ; preds = %._crit_edge
  %23 = getelementptr inbounds i8, ptr %3, i64 8
  %24 = load ptr, ptr %23, align 8
  store i32 0, ptr %20, align 4
  %.not.i.i.i.i = icmp eq ptr %24, null
  br i1 %.not.i.i.i.i, label %25, label %.loopexit.thread.i.i.i.i

.loopexit.thread.i.i.i.i:                         ; preds = %.loopexit.i.i.i.i
  tail call void @_ZN27GrowableArrayCHeapAllocator10deallocateEPv(ptr noundef nonnull %24) #9
  br label %25

25:                                               ; preds = %.loopexit.thread.i.i.i.i, %.loopexit.i.i.i.i
  store ptr null, ptr %23, align 8
  br label %_ZN14JvmtiAgentList8IteratorD2Ev.exit

_ZN14JvmtiAgentList8IteratorD2Ev.exit:            ; preds = %._crit_edge, %25
  tail call void @_ZN6AnyObjdlEPv(ptr noundef nonnull %3) #9
  ret i1 %.lcssa
}